target datalayout = "e-m:e-p270:32:32-p271:32:32-p272:64:64-i64:64-i128:128-f80:128-n8:16:32:64-S128"
target triple = "x86_64-pc-linux-gnu"

%class.SSAO = type <{ %class.DecorateShader, float, float, i32, i32, i32, i32, i32, i32, i32, i32, i32, i32, i32, i32, i32, i32, i32, i32, i32, [4 x i8] }>
%class.DecorateShader = type { ptr, i8, i32, i32, i32 }
%class.QMessageLogger = type { %class.QMessageLogContext }
%class.QMessageLogContext = type { i32, i32, ptr, ptr, ptr }

@.str.12 = private unnamed_addr constant [8 x i8] c"default\00", align 1
@__glewBindFramebuffer = external global ptr, align 8
@__GLEW_EXT_framebuffer_object = external global i8, align 1
@.str.23 = private unnamed_addr constant [19 x i8] c"FBO not supported!\00", align 1
@__glewGenFramebuffers = external global ptr, align 8
@__const._ZN4SSAO5setupEv.drawBuffers = private unnamed_addr constant [1 x i32] [i32 36064], align 4
@__glewDrawBuffersARB = external global ptr, align 8
@__glewCheckFramebufferStatus = external global ptr, align 8
@__const._ZN4SSAO5setupEv.drawBuffers2 = private unnamed_addr constant [1 x i32] [i32 36064], align 4
@__glewGenRenderbuffers = external global ptr, align 8
@__glewBindRenderbuffer = external global ptr, align 8
@__glewRenderbufferStorage = external global ptr, align 8
@__glewFramebufferRenderbuffer = external global ptr, align 8

; Function Attrs: mustprogress nounwind uwtable
define linkonce_odr void @_ZN18QMessageLogContextC2EPKciS1_S1_(ptr noundef nonnull align 8 dereferenceable(32) %0, ptr noundef %1, i32 noundef %2, ptr noundef %3, ptr noundef %4) unnamed_addr #0 comdat align 2 {
  %6 = alloca ptr, align 8
  %7 = alloca ptr, align 8
  %8 = alloca i32, align 4
  %9 = alloca ptr, align 8
  %10 = alloca ptr, align 8
  store ptr %0, ptr %6, align 8
  store ptr %1, ptr %7, align 8
  store i32 %2, ptr %8, align 4
  store ptr %3, ptr %9, align 8
  store ptr %4, ptr %10, align 8
  %11 = load ptr, ptr %6, align 8
  %12 = getelementptr inbounds %class.QMessageLogContext, ptr %11, i32 0, i32 0
  store i32 2, ptr %12, align 8
  %13 = getelementptr inbounds %class.QMessageLogContext, ptr %11, i32 0, i32 1
  %14 = load i32, ptr %8, align 4
  store i32 %14, ptr %13, align 4
  %15 = getelementptr inbounds %class.QMessageLogContext, ptr %11, i32 0, i32 2
  %16 = load ptr, ptr %7, align 8
  store ptr %16, ptr %15, align 8
  %17 = getelementptr inbounds %class.QMessageLogContext, ptr %11, i32 0, i32 3
  %18 = load ptr, ptr %9, align 8
  store ptr %18, ptr %17, align 8
  %19 = getelementptr inbounds %class.QMessageLogContext, ptr %11, i32 0, i32 4
  %20 = load ptr, ptr %10, align 8
  store ptr %20, ptr %19, align 8
  ret void
}

; Function Attrs: mustprogress uwtable
define linkonce_odr void @_ZN14DecorateShader23genDepthRenderBufferEXTERj(ptr noundef nonnull align 8 dereferenceable(24) %0, ptr noundef nonnull align 4 dereferenceable(4) %1) #1 comdat align 2 {
  %3 = alloca ptr, align 8
  %4 = alloca ptr, align 8
  store ptr %0, ptr %3, align 8
  store ptr %1, ptr %4, align 8
  %5 = load ptr, ptr %3, align 8
  %6 = load ptr, ptr @__glewGenRenderbuffers, align 8
  %7 = load ptr, ptr %4, align 8
  call void %6(i32 noundef 1, ptr noundef %7)
  %8 = load ptr, ptr @__glewBindRenderbuffer, align 8
  %9 = load ptr, ptr %4, align 8
  %10 = load i32, ptr %9, align 4
  call void %8(i32 noundef 36161, i32 noundef %10)
  %11 = load ptr, ptr @__glewRenderbufferStorage, align 8
  %12 = getelementptr inbounds %class.DecorateShader, ptr %5, i32 0, i32 2
  %13 = load i32, ptr %12, align 4
  %14 = getelementptr inbounds %class.DecorateShader, ptr %5, i32 0, i32 3
  %15 = load i32, ptr %14, align 8
  call void %11(i32 noundef 36161, i32 noundef 6402, i32 noundef %13, i32 noundef %15)
  %16 = load ptr, ptr @__glewFramebufferRenderbuffer, align 8
  %17 = load ptr, ptr %4, align 8
  %18 = load i32, ptr %17, align 4
  call void %16(i32 noundef 36160, i32 noundef 36096, i32 noundef 36161, i32 noundef %18)
  ret void
}

; Function Attrs: mustprogress nounwind uwtable
define linkonce_odr void @_ZN14QMessageLoggerC2EPKciS1_(ptr noundef nonnull align 8 dereferenceable(32) %0, ptr noundef %1, i32 noundef %2, ptr noundef %3) unnamed_addr #0 comdat align 2 {
  %5 = alloca ptr, align 8
  %6 = alloca ptr, align 8
  %7 = alloca i32, align 4
  %8 = alloca ptr, align 8
  store ptr %0, ptr %5, align 8
  store ptr %1, ptr %6, align 8
  store i32 %2, ptr %7, align 4
  store ptr %3, ptr %8, align 8
  %9 = load ptr, ptr %5, align 8
  %10 = getelementptr inbounds %class.QMessageLogger, ptr %9, i32 0, i32 0
  %11 = load ptr, ptr %6, align 8
  %12 = load i32, ptr %7, align 4
  %13 = load ptr, ptr %8, align 8
  call void @_ZN18QMessageLogContextC2EPKciS1_S1_(ptr noundef nonnull align 8 dereferenceable(32) %10, ptr noundef %11, i32 noundef %12, ptr noundef %13, ptr noundef @.str.12) #5
  ret void
}

; Function Attrs: mustprogress uwtable
define noundef zeroext i1 @_ZN4SSAO5setupEv(ptr noundef nonnull align 8 dereferenceable(100) %0) unnamed_addr #1 align 2 {
  %2 = alloca i1, align 1
  %3 = alloca ptr, align 8
  %4 = alloca %class.QMessageLogger, align 8
  %5 = alloca [1 x i32], align 4
  %6 = alloca i32, align 4
  %7 = alloca [1 x i32], align 4
  store ptr %0, ptr %3, align 8
  %8 = load ptr, ptr %3, align 8
  %9 = load i8, ptr @__GLEW_EXT_framebuffer_object, align 1
  %10 = icmp ne i8 %9, 0
  br i1 %10, label %12, label %11

11:                                               ; preds = %1
  call void @_ZN14QMessageLoggerC2EPKciS1_(ptr noundef nonnull align 8 dereferenceable(32) %4, ptr noundef null, i32 noundef 0, ptr noundef null)
  call void (ptr, ptr, ...) @_ZNK14QMessageLogger7warningEPKcz(ptr noundef nonnull align 8 dereferenceable(32) %4, ptr noundef @.str.23) #18
  store i1 false, ptr %2, align 1
  br label %61

12:                                               ; preds = %1
  %13 = getelementptr inbounds %class.DecorateShader, ptr %8, i32 0, i32 1
  %14 = load i8, ptr %13, align 8
  %15 = trunc i8 %14 to i1
  br i1 %15, label %16, label %17

16:                                               ; preds = %12
  store i1 true, ptr %2, align 1
  br label %61

17:                                               ; preds = %12
  %18 = load ptr, ptr @__glewGenFramebuffers, align 8
  %19 = getelementptr inbounds %class.DecorateShader, ptr %8, i32 0, i32 4
  call void %18(i32 noundef 1, ptr noundef %19)
  %20 = load ptr, ptr @__glewGenFramebuffers, align 8
  %21 = getelementptr inbounds %class.SSAO, ptr %8, i32 0, i32 10
  call void %20(i32 noundef 1, ptr noundef %21)
  %22 = load ptr, ptr @__glewBindFramebuffer, align 8
  %23 = getelementptr inbounds %class.DecorateShader, ptr %8, i32 0, i32 4
  %24 = load i32, ptr %23, align 4
  call void %22(i32 noundef 36160, i32 noundef %24)
  %25 = getelementptr inbounds %class.SSAO, ptr %8, i32 0, i32 5
  call void @_ZN14DecorateShader18genColorTextureEXTERjj(ptr noundef nonnull align 8 dereferenceable(24) %8, ptr noundef nonnull align 4 dereferenceable(4) %25, i32 noundef 36064)
  %26 = getelementptr inbounds %class.SSAO, ptr %8, i32 0, i32 8
  call void @_ZN14DecorateShader20genDepthMapTexture24ERjb(ptr noundef nonnull align 8 dereferenceable(24) %8, ptr noundef nonnull align 4 dereferenceable(4) %26, i1 noundef zeroext false)
  call void @llvm.memcpy.p0.p0.i64(ptr align 4 %5, ptr align 4 @__const._ZN4SSAO5setupEv.drawBuffers, i64 4, i1 false)
  %27 = load ptr, ptr @__glewDrawBuffersARB, align 8
  %28 = getelementptr inbounds [1 x i32], ptr %5, i64 0, i64 0
  call void %27(i32 noundef 0, ptr noundef %28)
  %29 = load ptr, ptr @__glewCheckFramebufferStatus, align 8
  %30 = call i32 %29(i32 noundef 36160)
  store i32 %30, ptr %6, align 4
  %31 = load i32, ptr %6, align 4
  %32 = icmp eq i32 %31, 36053
  %33 = getelementptr inbounds %class.DecorateShader, ptr %8, i32 0, i32 1
  %34 = zext i1 %32 to i8
  store i8 %34, ptr %33, align 8
  %35 = getelementptr inbounds %class.DecorateShader, ptr %8, i32 0, i32 1
  %36 = load i8, ptr %35, align 8
  %37 = trunc i8 %36 to i1
  br i1 %37, label %42, label %38

38:                                               ; preds = %17
  %39 = getelementptr inbounds %class.DecorateShader, ptr %8, i32 0, i32 1
  %40 = load i8, ptr %39, align 8
  %41 = trunc i8 %40 to i1
  store i1 %41, ptr %2, align 1
  br label %61

42:                                               ; preds = %17
  %43 = load ptr, ptr @__glewBindFramebuffer, align 8
  %44 = getelementptr inbounds %class.SSAO, ptr %8, i32 0, i32 10
  %45 = load i32, ptr %44, align 4
  call void %43(i32 noundef 36160, i32 noundef %45)
  %46 = getelementptr inbounds %class.SSAO, ptr %8, i32 0, i32 6
  call void @_ZN14DecorateShader18genColorTextureEXTERjj(ptr noundef nonnull align 8 dereferenceable(24) %8, ptr noundef nonnull align 4 dereferenceable(4) %46, i32 noundef 36064)
  %47 = getelementptr inbounds %class.SSAO, ptr %8, i32 0, i32 9
  call void @_ZN14DecorateShader23genDepthRenderBufferEXTERj(ptr noundef nonnull align 8 dereferenceable(24) %8, ptr noundef nonnull align 4 dereferenceable(4) %47)
  call void @llvm.memcpy.p0.p0.i64(ptr align 4 %7, ptr align 4 @__const._ZN4SSAO5setupEv.drawBuffers2, i64 4, i1 false)
  %48 = load ptr, ptr @__glewDrawBuffersARB, align 8
  %49 = getelementptr inbounds [1 x i32], ptr %7, i64 0, i64 0
  call void %48(i32 noundef 0, ptr noundef %49)
  %50 = call noundef zeroext i1 @_ZN4SSAO12loadNoiseTxtEv(ptr noundef nonnull align 8 dereferenceable(100) %8)
  %51 = load ptr, ptr @__glewCheckFramebufferStatus, align 8
  %52 = call i32 %51(i32 noundef 36160)
  store i32 %52, ptr %6, align 4
  %53 = load i32, ptr %6, align 4
  %54 = icmp eq i32 %53, 36053
  %55 = getelementptr inbounds %class.DecorateShader, ptr %8, i32 0, i32 1
  %56 = zext i1 %54 to i8
  store i8 %56, ptr %55, align 8
  %57 = load ptr, ptr @__glewBindFramebuffer, align 8
  call void %57(i32 noundef 36160, i32 noundef 0)
  %58 = getelementptr inbounds %class.DecorateShader, ptr %8, i32 0, i32 1
  %59 = load i8, ptr %58, align 8
  %60 = trunc i8 %59 to i1
  store i1 %60, ptr %2, align 1
  br label %61

61:                                               ; preds = %42, %38, %16, %11
  %62 = load i1, ptr %2, align 1
  ret i1 %62
}