; Function Attrs: mustprogress uwtable
define noundef zeroext i1 @_ZN4SSAO5setupEv(ptr noundef nonnull align 8 dereferenceable(100) %0) unnamed_addr #1 align 2 {
  %2 = alloca %class.QMessageLogger, align 8
  %3 = alloca [1 x i32], align 4
  %4 = alloca [1 x i32], align 4
  %5 = load i8, ptr @__GLEW_EXT_framebuffer_object, align 1
  %.not = icmp eq i8 %5, 0
  br i1 %.not, label %6, label %9

6:                                                ; preds = %1
  store i32 2, ptr %2, align 8
  %7 = getelementptr inbounds i8, ptr %2, i64 4
  %8 = getelementptr inbounds i8, ptr %2, i64 24
  call void @llvm.memset.p0.i64(ptr noundef nonnull align 4 dereferenceable(20) %7, i8 0, i64 20, i1 false)
  store ptr @.str.12, ptr %8, align 8
  call void (ptr, ptr, ...) @_ZNK14QMessageLogger7warningEPKcz(ptr noundef nonnull align 8 dereferenceable(32) %2, ptr noundef nonnull @.str.23) #23
  br label %52

9:                                                ; preds = %1
  %10 = getelementptr inbounds i8, ptr %0, i64 8
  %11 = load i8, ptr %10, align 8
  %12 = and i8 %11, 1
  %.not4 = icmp eq i8 %12, 0
  br i1 %.not4, label %13, label %52

13:                                               ; preds = %9
  %14 = load ptr, ptr @__glewGenFramebuffers, align 8
  %15 = getelementptr inbounds i8, ptr %0, i64 20
  tail call void %14(i32 noundef 1, ptr noundef nonnull %15)
  %16 = load ptr, ptr @__glewGenFramebuffers, align 8
  %17 = getelementptr inbounds i8, ptr %0, i64 60
  tail call void %16(i32 noundef 1, ptr noundef nonnull %17)
  %18 = load ptr, ptr @__glewBindFramebuffer, align 8
  %19 = load i32, ptr %15, align 4
  tail call void %18(i32 noundef 36160, i32 noundef %19)
  %20 = getelementptr inbounds i8, ptr %0, i64 40
  tail call void @_ZN14DecorateShader18genColorTextureEXTERjj(ptr noundef nonnull align 8 dereferenceable(24) %0, ptr noundef nonnull align 4 dereferenceable(4) %20, i32 noundef 36064)
  %21 = getelementptr inbounds i8, ptr %0, i64 52
  tail call void @_ZN14DecorateShader20genDepthMapTexture24ERjb(ptr noundef nonnull align 8 dereferenceable(24) %0, ptr noundef nonnull align 4 dereferenceable(4) %21, i1 noundef zeroext false)
  store i32 36064, ptr %3, align 4
  %22 = load ptr, ptr @__glewDrawBuffersARB, align 8
  call void %22(i32 noundef 0, ptr noundef nonnull %3)
  %23 = load ptr, ptr @__glewCheckFramebufferStatus, align 8
  %24 = call i32 %23(i32 noundef 36160)
  %25 = icmp eq i32 %24, 36053
  %26 = zext i1 %25 to i8
  store i8 %26, ptr %10, align 8
  br i1 %25, label %27, label %52

27:                                               ; preds = %13
  %28 = load ptr, ptr @__glewBindFramebuffer, align 8
  %29 = load i32, ptr %17, align 4
  call void %28(i32 noundef 36160, i32 noundef %29)
  %30 = getelementptr inbounds i8, ptr %0, i64 44
  call void @_ZN14DecorateShader18genColorTextureEXTERjj(ptr noundef nonnull align 8 dereferenceable(24) %0, ptr noundef nonnull align 4 dereferenceable(4) %30, i32 noundef 36064)
  %31 = getelementptr inbounds i8, ptr %0, i64 56
  %32 = load ptr, ptr @__glewGenRenderbuffers, align 8
  call void %32(i32 noundef 1, ptr noundef nonnull %31)
  %33 = load ptr, ptr @__glewBindRenderbuffer, align 8
  %34 = load i32, ptr %31, align 8
  call void %33(i32 noundef 36161, i32 noundef %34)
  %35 = load ptr, ptr @__glewRenderbufferStorage, align 8
  %36 = getelementptr inbounds i8, ptr %0, i64 12
  %37 = load i32, ptr %36, align 4
  %38 = getelementptr inbounds i8, ptr %0, i64 16
  %39 = load i32, ptr %38, align 8
  call void %35(i32 noundef 36161, i32 noundef 6402, i32 noundef %37, i32 noundef %39)
  %40 = load ptr, ptr @__glewFramebufferRenderbuffer, align 8
  %41 = load i32, ptr %31, align 8
  call void %40(i32 noundef 36160, i32 noundef 36096, i32 noundef 36161, i32 noundef %41)
  store i32 36064, ptr %4, align 4
  %42 = load ptr, ptr @__glewDrawBuffersARB, align 8
  call void %42(i32 noundef 0, ptr noundef nonnull %4)
  %43 = call noundef zeroext i1 @_ZN4SSAO12loadNoiseTxtEv(ptr noundef nonnull align 8 dereferenceable(100) %0)
  %44 = load ptr, ptr @__glewCheckFramebufferStatus, align 8
  %45 = call i32 %44(i32 noundef 36160)
  %46 = icmp eq i32 %45, 36053
  %47 = zext i1 %46 to i8
  store i8 %47, ptr %10, align 8
  %48 = load ptr, ptr @__glewBindFramebuffer, align 8
  call void %48(i32 noundef 36160, i32 noundef 0)
  %49 = load i8, ptr %10, align 8
  %50 = and i8 %49, 1
  %51 = icmp ne i8 %50, 0
  br label %52

52:                                               ; preds = %13, %9, %27, %6
  %.0 = phi i1 [ %51, %27 ], [ false, %6 ], [ true, %9 ], [ false, %13 ]
  ret i1 %.0
}